; ModuleID = '23/1036.c'
source_filename = "23/1036.c"
target datalayout = "e-m:e-p270:32:32-p271:32:32-p272:64:64-i64:64-f80:128-n8:16:32:64-S128"
target triple = "x86_64-pc-linux-gnu"

@.str = private unnamed_addr constant [3 x i8] c"%c\00", align 1
@.str.1 = private unnamed_addr constant [2 x i8] c" \00", align 1

; Function Attrs: noinline nounwind uwtable
define dso_local void @main() #0 {
  %1 = alloca [100 x [100 x i8]], align 16
  %2 = alloca [100 x i8], align 16
  %3 = alloca i32, align 4
  %4 = alloca i32, align 4
  %5 = alloca i32, align 4
  store i32 0, i32* %3, align 4
  store i32 0, i32* %5, align 4
  %6 = getelementptr inbounds [100 x i8], [100 x i8]* %2, i64 0, i64 0
  %7 = call i32 (i8*, ...) bitcast (i32 (...)* @gets to i32 (i8*, ...)*)(i8* %6)
  store i32 0, i32* %4, align 4
  br label %8

8:                                                ; preds = %44, %0
  %9 = load i32, i32* %4, align 4
  %10 = sext i32 %9 to i64
  %11 = getelementptr inbounds [100 x i8], [100 x i8]* %2, i64 0, i64 0
  %12 = call i64 @strlen(i8* %11) #3
  %13 = icmp ule i64 %10, %12
  br i1 %13, label %14, label %47

14:                                               ; preds = %8
  %15 = load i32, i32* %4, align 4
  %16 = sext i32 %15 to i64
  %17 = getelementptr inbounds [100 x i8], [100 x i8]* %2, i64 0, i64 %16
  %18 = load i8, i8* %17, align 1
  %19 = sext i8 %18 to i32
  %20 = icmp ne i32 %19, 32
  br i1 %20, label %21, label %34

21:                                               ; preds = %14
  %22 = load i32, i32* %4, align 4
  %23 = sext i32 %22 to i64
  %24 = getelementptr inbounds [100 x i8], [100 x i8]* %2, i64 0, i64 %23
  %25 = load i8, i8* %24, align 1
  %26 = load i32, i32* %3, align 4
  %27 = sext i32 %26 to i64
  %28 = getelementptr inbounds [100 x [100 x i8]], [100 x [100 x i8]]* %1, i64 0, i64 %27
  %29 = load i32, i32* %5, align 4
  %30 = sext i32 %29 to i64
  %31 = getelementptr inbounds [100 x i8], [100 x i8]* %28, i64 0, i64 %30
  store i8 %25, i8* %31, align 1
  %32 = load i32, i32* %5, align 4
  %33 = add nsw i32 %32, 1
  store i32 %33, i32* %5, align 4
  br label %43

34:                                               ; preds = %14
  %35 = load i32, i32* %3, align 4
  %36 = sext i32 %35 to i64
  %37 = getelementptr inbounds [100 x [100 x i8]], [100 x [100 x i8]]* %1, i64 0, i64 %36
  %38 = load i32, i32* %4, align 4
  %39 = sext i32 %38 to i64
  %40 = getelementptr inbounds [100 x i8], [100 x i8]* %37, i64 0, i64 %39
  store i8 0, i8* %40, align 1
  %41 = load i32, i32* %3, align 4
  %42 = add nsw i32 %41, 1
  store i32 %42, i32* %3, align 4
  store i32 0, i32* %5, align 4
  br label %43

43:                                               ; preds = %34, %21
  br label %44

44:                                               ; preds = %43
  %45 = load i32, i32* %4, align 4
  %46 = add nsw i32 %45, 1
  store i32 %46, i32* %4, align 4
  br label %8

47:                                               ; preds = %8
  br label %48

48:                                               ; preds = %74, %47
  %49 = load i32, i32* %3, align 4
  %50 = icmp sgt i32 %49, 0
  br i1 %50, label %51, label %78

51:                                               ; preds = %48
  store i32 0, i32* %4, align 4
  br label %52

52:                                               ; preds = %62, %51
  %53 = load i32, i32* %3, align 4
  %54 = sext i32 %53 to i64
  %55 = getelementptr inbounds [100 x [100 x i8]], [100 x [100 x i8]]* %1, i64 0, i64 %54
  %56 = load i32, i32* %4, align 4
  %57 = sext i32 %56 to i64
  %58 = getelementptr inbounds [100 x i8], [100 x i8]* %55, i64 0, i64 %57
  %59 = load i8, i8* %58, align 1
  %60 = sext i8 %59 to i32
  %61 = icmp ne i32 %60, 0
  br i1 %61, label %62, label %74

62:                                               ; preds = %52
  %63 = load i32, i32* %3, align 4
  %64 = sext i32 %63 to i64
  %65 = getelementptr inbounds [100 x [100 x i8]], [100 x [100 x i8]]* %1, i64 0, i64 %64
  %66 = load i32, i32* %4, align 4
  %67 = sext i32 %66 to i64
  %68 = getelementptr inbounds [100 x i8], [100 x i8]* %65, i64 0, i64 %67
  %69 = load i8, i8* %68, align 1
  %70 = sext i8 %69 to i32
  %71 = call i32 (i8*, ...) @printf(i8* getelementptr inbounds ([3 x i8], [3 x i8]* @.str, i64 0, i64 0), i32 %70)
  %72 = load i32, i32* %4, align 4
  %73 = add nsw i32 %72, 1
  store i32 %73, i32* %4, align 4
  br label %52

74:                                               ; preds = %52
  %75 = call i32 (i8*, ...) @printf(i8* getelementptr inbounds ([2 x i8], [2 x i8]* @.str.1, i64 0, i64 0))
  %76 = load i32, i32* %3, align 4
  %77 = sub nsw i32 %76, 1
  store i32 %77, i32* %3, align 4
  br label %48

78:                                               ; preds = %48
  store i32 0, i32* %4, align 4
  br label %79

79:                                               ; preds = %87, %78
  %80 = getelementptr inbounds [100 x [100 x i8]], [100 x [100 x i8]]* %1, i64 0, i64 0
  %81 = load i32, i32* %4, align 4
  %82 = sext i32 %81 to i64
  %83 = getelementptr inbounds [100 x i8], [100 x i8]* %80, i64 0, i64 %82
  %84 = load i8, i8* %83, align 1
  %85 = sext i8 %84 to i32
  %86 = icmp ne i32 %85, 0
  br i1 %86, label %87, label %97

87:                                               ; preds = %79
  %88 = getelementptr inbounds [100 x [100 x i8]], [100 x [100 x i8]]* %1, i64 0, i64 0
  %89 = load i32, i32* %4, align 4
  %90 = sext i32 %89 to i64
  %91 = getelementptr inbounds [100 x i8], [100 x i8]* %88, i64 0, i64 %90
  %92 = load i8, i8* %91, align 1
  %93 = sext i8 %92 to i32
  %94 = call i32 (i8*, ...) @printf(i8* getelementptr inbounds ([3 x i8], [3 x i8]* @.str, i64 0, i64 0), i32 %93)
  %95 = load i32, i32* %4, align 4
  %96 = add nsw i32 %95, 1
  store i32 %96, i32* %4, align 4
  br label %79

97:                                               ; preds = %79
  ret void
}

declare dso_local i32 @gets(...) #1

; Function Attrs: nounwind readonly
declare dso_local i64 @strlen(i8*) #2

declare dso_local i32 @printf(i8*, ...) #1


!llvm.module.flags = !{!0}
!llvm.ident = !{!1}

!0 = !{i32 1, !"wchar_size", i32 4}
!1 = !{!"clang version 10.0.0-4ubuntu1 "}
